target datalayout = "e-m:e-p270:32:32-p271:32:32-p272:64:64-i64:64-i128:128-f80:128-n8:16:32:64-S128"
target triple = "x86_64-pc-linux-gnu"

%struct.buffer_s = type { ptr, i64 }
%struct.Range = type { ptr, i64 }
%struct.RoundBuff_t = type { ptr, i64, i64 }
%struct.ZSTD_customMem = type { ptr, ptr, ptr }
%struct.ZSTDMT_CCtx_s = type { ptr, ptr, ptr, ptr, ptr, %struct.ZSTD_CCtx_params_s, i64, i64, i32, %struct.InBuff_t, %struct.RoundBuff_t, %struct.SerialState, %struct.RSyncState_t, i32, i32, i32, i32, i32, i64, i64, i64, %struct.ZSTD_customMem, ptr, ptr, i8 }
%struct.ZSTD_CCtx_params_s = type { i32, %struct.ZSTD_compressionParameters, %struct.ZSTD_frameParameters, i32, i32, i64, i32, i32, i32, i32, i64, i32, i32, %struct.ldmParams_t, i32, i32, i32, i32, i32, i32, i32, i64, i32, i32, %struct.ZSTD_customMem, i32, i32, ptr, ptr, i32 }
%struct.ZSTD_compressionParameters = type { i32, i32, i32, i32, i32, i32, i32 }
%struct.ZSTD_frameParameters = type { i32, i32, i32 }
%struct.ldmParams_t = type { i32, i32, i32, i32, i32, i32 }
%struct.InBuff_t = type { %struct.Range, %struct.buffer_s, i64 }
%struct.SerialState = type { %union.pthread_mutex_t, %union.pthread_cond_t, %struct.ZSTD_CCtx_params_s, %struct.ldmState_t, %struct.XXH64_state_s, i32, %union.pthread_mutex_t, %union.pthread_cond_t, %struct.ZSTD_window_t }
%struct.ldmState_t = type { %struct.ZSTD_window_t, ptr, i32, ptr, [64 x i64], [64 x %struct.ldmMatchCandidate_t] }
%struct.ldmMatchCandidate_t = type { ptr, i32, i32, ptr }
%struct.XXH64_state_s = type { i64, [4 x i64], [4 x i64], i32, i32, i64 }
%union.pthread_mutex_t = type { %struct.__pthread_mutex_s }
%struct.__pthread_mutex_s = type { i32, i32, i32, i32, i32, i16, i16, %struct.__pthread_internal_list }
%struct.__pthread_internal_list = type { ptr, ptr }
%union.pthread_cond_t = type { %struct.__pthread_cond_s }
%struct.__pthread_cond_s = type { %union.__atomic_wide_counter, %union.__atomic_wide_counter, [2 x i32], [2 x i32], i32, i32, [2 x i32] }
%union.__atomic_wide_counter = type { i64 }
%struct.ZSTD_window_t = type { ptr, ptr, ptr, i32, i32, i32 }
%struct.RSyncState_t = type { i64, i64, i64 }
%struct.ZSTDMT_jobDescription = type { i64, i64, %union.pthread_mutex_t, %union.pthread_cond_t, ptr, ptr, ptr, ptr, %struct.buffer_s, %struct.Range, %struct.Range, i32, i32, i32, %struct.ZSTD_CCtx_params_s, ptr, i64, i64, i32 }
%struct.ZSTD_frameProgression = type { i64, i64, i64, i64, i32, i32 }

; Function Attrs: nounwind uwtable
define internal i32 @ERR_isError(i64 noundef %0) #0 {
  %2 = alloca i64, align 8
  store i64 %0, ptr %2, align 8, !tbaa !45
  %3 = load i64, ptr %2, align 8, !tbaa !45
  %4 = icmp ugt i64 %3, -120
  %5 = zext i1 %4 to i32
  ret i32 %5
}

; Function Attrs: nounwind uwtable
define void @ZSTDMT_getFrameProgression(ptr dead_on_unwind noalias writable sret(%struct.ZSTD_frameProgression) align 8 %0, ptr noundef %1) #0 {
  %3 = alloca ptr, align 8
  %4 = alloca i32, align 4
  %5 = alloca i32, align 4
  %6 = alloca i32, align 4
  %7 = alloca ptr, align 8
  %8 = alloca i64, align 8
  %9 = alloca i64, align 8
  %10 = alloca i64, align 8
  store ptr %1, ptr %3, align 8, !tbaa !13
  br label %11

11:                                               ; preds = %2
  br label %12

12:                                               ; preds = %11
  %13 = load ptr, ptr %3, align 8, !tbaa !13
  %14 = getelementptr inbounds nuw %struct.ZSTDMT_CCtx_s, ptr %13, i32 0, i32 19
  %15 = load i64, ptr %14, align 8, !tbaa !84
  %16 = load ptr, ptr %3, align 8, !tbaa !13
  %17 = getelementptr inbounds nuw %struct.ZSTDMT_CCtx_s, ptr %16, i32 0, i32 9
  %18 = getelementptr inbounds nuw %struct.InBuff_t, ptr %17, i32 0, i32 2
  %19 = load i64, ptr %18, align 8, !tbaa !54
  %20 = add i64 %15, %19
  %21 = getelementptr inbounds nuw %struct.ZSTD_frameProgression, ptr %0, i32 0, i32 0
  store i64 %20, ptr %21, align 8, !tbaa !85
  %22 = load ptr, ptr %3, align 8, !tbaa !13
  %23 = getelementptr inbounds nuw %struct.ZSTDMT_CCtx_s, ptr %22, i32 0, i32 19
  %24 = load i64, ptr %23, align 8, !tbaa !84
  %25 = getelementptr inbounds nuw %struct.ZSTD_frameProgression, ptr %0, i32 0, i32 1
  store i64 %24, ptr %25, align 8, !tbaa !87
  %26 = load ptr, ptr %3, align 8, !tbaa !13
  %27 = getelementptr inbounds nuw %struct.ZSTDMT_CCtx_s, ptr %26, i32 0, i32 20
  %28 = load i64, ptr %27, align 8, !tbaa !88
  %29 = getelementptr inbounds nuw %struct.ZSTD_frameProgression, ptr %0, i32 0, i32 3
  store i64 %28, ptr %29, align 8, !tbaa !89
  %30 = getelementptr inbounds nuw %struct.ZSTD_frameProgression, ptr %0, i32 0, i32 2
  store i64 %28, ptr %30, align 8, !tbaa !90
  %31 = load ptr, ptr %3, align 8, !tbaa !13
  %32 = getelementptr inbounds nuw %struct.ZSTDMT_CCtx_s, ptr %31, i32 0, i32 15
  %33 = load i32, ptr %32, align 8, !tbaa !91
  %34 = getelementptr inbounds nuw %struct.ZSTD_frameProgression, ptr %0, i32 0, i32 4
  store i32 %33, ptr %34, align 8, !tbaa !92
  %35 = getelementptr inbounds nuw %struct.ZSTD_frameProgression, ptr %0, i32 0, i32 5
  store i32 0, ptr %35, align 4, !tbaa !93
  call void @llvm.lifetime.start.p0(i64 4, ptr %4) #11
  call void @llvm.lifetime.start.p0(i64 4, ptr %5) #11
  %36 = load ptr, ptr %3, align 8, !tbaa !13
  %37 = getelementptr inbounds nuw %struct.ZSTDMT_CCtx_s, ptr %36, i32 0, i32 15
  %38 = load i32, ptr %37, align 8, !tbaa !91
  %39 = load ptr, ptr %3, align 8, !tbaa !13
  %40 = getelementptr inbounds nuw %struct.ZSTDMT_CCtx_s, ptr %39, i32 0, i32 8
  %41 = load i32, ptr %40, align 8, !tbaa !94
  %42 = add i32 %38, %41
  store i32 %42, ptr %5, align 4, !tbaa !3
  br label %43

43:                                               ; preds = %12
  br label %44

44:                                               ; preds = %43
  br label %45

45:                                               ; preds = %44
  %46 = load ptr, ptr %3, align 8, !tbaa !13
  %47 = getelementptr inbounds nuw %struct.ZSTDMT_CCtx_s, ptr %46, i32 0, i32 14
  %48 = load i32, ptr %47, align 4, !tbaa !95
  store i32 %48, ptr %4, align 4, !tbaa !3
  br label %49

49:                                               ; preds = %130, %45
  %50 = load i32, ptr %4, align 4, !tbaa !3
  %51 = load i32, ptr %5, align 4, !tbaa !3
  %52 = icmp ult i32 %50, %51
  br i1 %52, label %53, label %133

53:                                               ; preds = %49
  call void @llvm.lifetime.start.p0(i64 4, ptr %6) #11
  %54 = load i32, ptr %4, align 4, !tbaa !3
  %55 = load ptr, ptr %3, align 8, !tbaa !13
  %56 = getelementptr inbounds nuw %struct.ZSTDMT_CCtx_s, ptr %55, i32 0, i32 13
  %57 = load i32, ptr %56, align 8, !tbaa !39
  %58 = and i32 %54, %57
  store i32 %58, ptr %6, align 4, !tbaa !3
  call void @llvm.lifetime.start.p0(i64 8, ptr %7) #11
  %59 = load ptr, ptr %3, align 8, !tbaa !13
  %60 = getelementptr inbounds nuw %struct.ZSTDMT_CCtx_s, ptr %59, i32 0, i32 1
  %61 = load ptr, ptr %60, align 8, !tbaa !38
  %62 = load i32, ptr %6, align 4, !tbaa !3
  %63 = zext i32 %62 to i64
  %64 = getelementptr inbounds nuw %struct.ZSTDMT_jobDescription, ptr %61, i64 %63
  store ptr %64, ptr %7, align 8, !tbaa !16
  %65 = load ptr, ptr %7, align 8, !tbaa !16
  %66 = getelementptr inbounds nuw %struct.ZSTDMT_jobDescription, ptr %65, i32 0, i32 2
  %67 = call i32 @pthread_mutex_lock(ptr noundef %66) #11
  call void @llvm.lifetime.start.p0(i64 8, ptr %8) #11
  %68 = load ptr, ptr %7, align 8, !tbaa !16
  %69 = getelementptr inbounds nuw %struct.ZSTDMT_jobDescription, ptr %68, i32 0, i32 1
  %70 = load i64, ptr %69, align 8, !tbaa !96
  store i64 %70, ptr %8, align 8, !tbaa !45
  call void @llvm.lifetime.start.p0(i64 8, ptr %9) #11
  %71 = load i64, ptr %8, align 8, !tbaa !45
  %72 = call i32 @ERR_isError(i64 noundef %71)
  %73 = icmp ne i32 %72, 0
  br i1 %73, label %74, label %75

74:                                               ; preds = %53
  br label %77

75:                                               ; preds = %53
  %76 = load i64, ptr %8, align 8, !tbaa !45
  br label %77

77:                                               ; preds = %75, %74
  %78 = phi i64 [ 0, %74 ], [ %76, %75 ]
  store i64 %78, ptr %9, align 8, !tbaa !45
  call void @llvm.lifetime.start.p0(i64 8, ptr %10) #11
  %79 = load i64, ptr %8, align 8, !tbaa !45
  %80 = call i32 @ERR_isError(i64 noundef %79)
  %81 = icmp ne i32 %80, 0
  br i1 %81, label %82, label %83

82:                                               ; preds = %77
  br label %87

83:                                               ; preds = %77
  %84 = load ptr, ptr %7, align 8, !tbaa !16
  %85 = getelementptr inbounds nuw %struct.ZSTDMT_jobDescription, ptr %84, i32 0, i32 17
  %86 = load i64, ptr %85, align 8, !tbaa !98
  br label %87

87:                                               ; preds = %83, %82
  %88 = phi i64 [ 0, %82 ], [ %86, %83 ]
  store i64 %88, ptr %10, align 8, !tbaa !45
  %89 = load ptr, ptr %7, align 8, !tbaa !16
  %90 = getelementptr inbounds nuw %struct.ZSTDMT_jobDescription, ptr %89, i32 0, i32 10
  %91 = getelementptr inbounds nuw %struct.Range, ptr %90, i32 0, i32 1
  %92 = load i64, ptr %91, align 8, !tbaa !99
  %93 = getelementptr inbounds nuw %struct.ZSTD_frameProgression, ptr %0, i32 0, i32 0
  %94 = load i64, ptr %93, align 8, !tbaa !85
  %95 = add i64 %94, %92
  store i64 %95, ptr %93, align 8, !tbaa !85
  %96 = load ptr, ptr %7, align 8, !tbaa !16
  %97 = getelementptr inbounds nuw %struct.ZSTDMT_jobDescription, ptr %96, i32 0, i32 0
  %98 = load i64, ptr %97, align 8, !tbaa !100
  %99 = getelementptr inbounds nuw %struct.ZSTD_frameProgression, ptr %0, i32 0, i32 1
  %100 = load i64, ptr %99, align 8, !tbaa !87
  %101 = add i64 %100, %98
  store i64 %101, ptr %99, align 8, !tbaa !87
  %102 = load i64, ptr %9, align 8, !tbaa !45
  %103 = getelementptr inbounds nuw %struct.ZSTD_frameProgression, ptr %0, i32 0, i32 2
  %104 = load i64, ptr %103, align 8, !tbaa !90
  %105 = add i64 %104, %102
  store i64 %105, ptr %103, align 8, !tbaa !90
  %106 = load i64, ptr %10, align 8, !tbaa !45
  %107 = getelementptr inbounds nuw %struct.ZSTD_frameProgression, ptr %0, i32 0, i32 3
  %108 = load i64, ptr %107, align 8, !tbaa !89
  %109 = add i64 %108, %106
  store i64 %109, ptr %107, align 8, !tbaa !89
  %110 = load ptr, ptr %7, align 8, !tbaa !16
  %111 = getelementptr inbounds nuw %struct.ZSTDMT_jobDescription, ptr %110, i32 0, i32 0
  %112 = load i64, ptr %111, align 8, !tbaa !100
  %113 = load ptr, ptr %7, align 8, !tbaa !16
  %114 = getelementptr inbounds nuw %struct.ZSTDMT_jobDescription, ptr %113, i32 0, i32 10
  %115 = getelementptr inbounds nuw %struct.Range, ptr %114, i32 0, i32 1
  %116 = load i64, ptr %115, align 8, !tbaa !99
  %117 = icmp ult i64 %112, %116
  %118 = zext i1 %117 to i32
  %119 = getelementptr inbounds nuw %struct.ZSTD_frameProgression, ptr %0, i32 0, i32 5
  %120 = load i32, ptr %119, align 4, !tbaa !93
  %121 = add i32 %120, %118
  store i32 %121, ptr %119, align 4, !tbaa !93
  call void @llvm.lifetime.end.p0(i64 8, ptr %10) #11
  call void @llvm.lifetime.end.p0(i64 8, ptr %9) #11
  call void @llvm.lifetime.end.p0(i64 8, ptr %8) #11
  %122 = load ptr, ptr %3, align 8, !tbaa !13
  %123 = getelementptr inbounds nuw %struct.ZSTDMT_CCtx_s, ptr %122, i32 0, i32 1
  %124 = load ptr, ptr %123, align 8, !tbaa !38
  %125 = load i32, ptr %6, align 4, !tbaa !3
  %126 = zext i32 %125 to i64
  %127 = getelementptr inbounds nuw %struct.ZSTDMT_jobDescription, ptr %124, i64 %126
  %128 = getelementptr inbounds nuw %struct.ZSTDMT_jobDescription, ptr %127, i32 0, i32 2
  %129 = call i32 @pthread_mutex_unlock(ptr noundef %128) #11
  call void @llvm.lifetime.end.p0(i64 8, ptr %7) #11
  call void @llvm.lifetime.end.p0(i64 4, ptr %6) #11
  br label %130

130:                                              ; preds = %87
  %131 = load i32, ptr %4, align 4, !tbaa !3
  %132 = add i32 %131, 1
  store i32 %132, ptr %4, align 4, !tbaa !3
  br label %49, !llvm.loop !101

133:                                              ; preds = %49
  call void @llvm.lifetime.end.p0(i64 4, ptr %5) #11
  call void @llvm.lifetime.end.p0(i64 4, ptr %4) #11
  ret void
}