; Function Attrs: nounwind uwtable
define void @ZSTDMT_getFrameProgression(ptr dead_on_unwind noalias writable writeonly sret(%struct.ZSTD_frameProgression) align 8 captures(none) initializes((32, 36)) %0, ptr noundef readonly captures(none) %1) local_unnamed_addr #0 {
  %3 = getelementptr inbounds nuw i8, ptr %1, i64 3056
  %4 = load i64, ptr %3, align 8, !tbaa !75
  %5 = getelementptr inbounds nuw i8, ptr %1, i64 320
  %6 = load i64, ptr %5, align 8, !tbaa !76
  %7 = add i64 %6, %4
  %8 = getelementptr inbounds nuw i8, ptr %1, i64 3064
  %9 = load i64, ptr %8, align 8, !tbaa !77
  %10 = getelementptr inbounds nuw i8, ptr %1, i64 3032
  %11 = load i32, ptr %10, align 8, !tbaa !78
  %12 = getelementptr inbounds nuw i8, ptr %0, i64 32
  store i32 %11, ptr %12, align 8, !tbaa !79
  %13 = getelementptr inbounds nuw i8, ptr %1, i64 280
  %14 = load i32, ptr %13, align 8, !tbaa !81
  %15 = add i32 %14, %11
  %16 = getelementptr inbounds nuw i8, ptr %1, i64 3028
  %17 = load i32, ptr %16, align 4, !tbaa !82
  %18 = icmp ult i32 %17, %15
  br i1 %18, label %.lr.ph, label %._crit_edge

.lr.ph:                                           ; preds = %2
  %19 = getelementptr inbounds nuw i8, ptr %1, i64 3024
  %20 = getelementptr inbounds nuw i8, ptr %1, i64 8
  br label %21

21:                                               ; preds = %.lr.ph, %41
  %.037 = phi i32 [ %17, %.lr.ph ], [ %56, %41 ]
  %22 = phi i64 [ %7, %.lr.ph ], [ %45, %41 ]
  %23 = phi i64 [ %4, %.lr.ph ], [ %47, %41 ]
  %24 = phi i64 [ %9, %.lr.ph ], [ %48, %41 ]
  %25 = phi i64 [ %9, %.lr.ph ], [ %49, %41 ]
  %26 = phi i32 [ 0, %.lr.ph ], [ %52, %41 ]
  %27 = load i32, ptr %19, align 8, !tbaa !36
  %28 = and i32 %27, %.037
  %29 = load ptr, ptr %20, align 8, !tbaa !35
  %30 = zext i32 %28 to i64
  %31 = getelementptr inbounds nuw %struct.ZSTDMT_jobDescription, ptr %29, i64 %30
  %32 = getelementptr inbounds nuw i8, ptr %31, i64 16
  %33 = tail call i32 @pthread_mutex_lock(ptr noundef nonnull %32) #14
  %34 = getelementptr inbounds nuw i8, ptr %31, i64 8
  %35 = load i64, ptr %34, align 8, !tbaa !83
  %36 = icmp ult i64 %35, -119
  %37 = select i1 %36, i64 %35, i64 0
  br i1 %36, label %38, label %41

38:                                               ; preds = %21
  %39 = getelementptr inbounds nuw i8, ptr %31, i64 440
  %40 = load i64, ptr %39, align 8, !tbaa !85
  br label %41

41:                                               ; preds = %21, %38
  %42 = phi i64 [ %40, %38 ], [ 0, %21 ]
  %43 = getelementptr inbounds nuw i8, ptr %31, i64 176
  %44 = load i64, ptr %43, align 8, !tbaa !86
  %45 = add i64 %22, %44
  %46 = load i64, ptr %31, align 8, !tbaa !87
  %47 = add i64 %23, %46
  %48 = add i64 %24, %37
  %49 = add i64 %25, %42
  %50 = icmp ult i64 %46, %44
  %51 = zext i1 %50 to i32
  %52 = add i32 %26, %51
  %53 = load ptr, ptr %20, align 8, !tbaa !35
  %54 = getelementptr inbounds nuw %struct.ZSTDMT_jobDescription, ptr %53, i64 %30, i32 2
  %55 = tail call i32 @pthread_mutex_unlock(ptr noundef nonnull %54) #14
  %56 = add i32 %.037, 1
  %exitcond.not = icmp eq i32 %56, %15
  br i1 %exitcond.not, label %._crit_edge, label %21, !llvm.loop !88

._crit_edge:                                      ; preds = %41, %2
  %.lcssa36 = phi i32 [ 0, %2 ], [ %52, %41 ]
  %.lcssa34 = phi i64 [ %9, %2 ], [ %49, %41 ]
  %.lcssa32 = phi i64 [ %9, %2 ], [ %48, %41 ]
  %.lcssa30 = phi i64 [ %4, %2 ], [ %47, %41 ]
  %.lcssa = phi i64 [ %7, %2 ], [ %45, %41 ]
  %57 = getelementptr inbounds nuw i8, ptr %0, i64 36
  %58 = getelementptr inbounds nuw i8, ptr %0, i64 16
  %59 = getelementptr inbounds nuw i8, ptr %0, i64 24
  %60 = getelementptr inbounds nuw i8, ptr %0, i64 8
  store i64 %.lcssa, ptr %0, align 8
  store i64 %.lcssa30, ptr %60, align 8
  store i64 %.lcssa32, ptr %58, align 8
  store i64 %.lcssa34, ptr %59, align 8
  store i32 %.lcssa36, ptr %57, align 4
  ret void
}